target datalayout = "e-m:e-p270:32:32-p271:32:32-p272:64:64-i64:64-i128:128-f80:128-n8:16:32:64-S128"
target triple = "x86_64-pc-linux-gnu"

%struct.Latch = type { i32, i32, i8, i32 }

@MyProcPid = external global i32, align 4

; Function Attrs: nounwind uwtable
define dso_local void @InitLatch(ptr noundef %0) #0 {
  %2 = alloca ptr, align 8
  store ptr %0, ptr %2, align 8
  %3 = load ptr, ptr %2, align 8
  %4 = getelementptr inbounds nuw %struct.Latch, ptr %3, i32 0, i32 0
  store i32 0, ptr %4, align 4
  %5 = load ptr, ptr %2, align 8
  %6 = getelementptr inbounds nuw %struct.Latch, ptr %5, i32 0, i32 1
  store i32 0, ptr %6, align 4
  %7 = load i32, ptr @MyProcPid, align 4
  %8 = load ptr, ptr %2, align 8
  %9 = getelementptr inbounds nuw %struct.Latch, ptr %8, i32 0, i32 3
  store i32 %7, ptr %9, align 4
  %10 = load ptr, ptr %2, align 8
  %11 = getelementptr inbounds nuw %struct.Latch, ptr %10, i32 0, i32 2
  store i8 0, ptr %11, align 4
  ret void
}